c__builtin__
set
p1
((lp2
Vgw
p3
aVgu
p4
aVgt
p5
aVgr
p6
aVgq
p7
aVgp
p8
aVmnt
p9
aVgy
p10
aVuzbekistan
p11
aVgf
p12
aVge
p13
aVgd
p14
aVguinea-bissau
p15
aVgn
p16
aVgm
p17
aVgl
p18
aVcyprus
p19
aVgi
p20
aVgh
p21
aVtz
p22
aVtv
p23
aVtw
p24
aVtt
p25
aVtr
p26
aVtp
p27
aVtn
p28
aVto
p29
aVrwanda
p30
aVtj
p31
aVtk
p32
aVth
p33
aVtf
p34
aVtg
p35
aVghana
p36
aVmauritania
p37
aVvu
p38
aVphilippines
p39
aVmoldova
p40
aVbosnia and herzegovina
p41
aVjamaica
p42
aVsamoa
p43
aVga
p44
aVza
p45
aVzw
p46
aVafghanistan
p47
aVtajikistan
p48
aVpanama
p49
aVsomalia
p50
aVnetherlands antilles
p51
aVbrunei
p52
aViran
p53
aVmali
p54
aVchina
p55
aViraq
p56
aVukraine
p57
aVoman
p58
aVmauritius
p59
aVdominican republic
p60
aVegypt
p61
aVpapua new guinea
p62
aVaustria
p63
aVnew zealand
p64
aVsaudi arabia
p65
aVcongo, republic of the
p66
aVvg
p67
aVfrance
p68
aVtm
p69
aVperu
p70
aVmalawi
p71
aVisrael
p72
aVcoted'ivoire
p73
aVmg
p74
aVma
p75
aVmc
p76
aVmm
p77
aVml
p78
aVmo
p79
aVmn
p80
aVmh
p81
aVmk
p82
aVpr
p83
aVmu
p84
aVmt
p85
aVmw
p86
aVmv
p87
aVmq
p88
aVmp
p89
aVms
p90
aVmr
p91
aVgrenada
p92
aVyemen
p93
aVmy
p94
aVmx
p95
aVmz
p96
aVuruguay
p97
aVindia
p98
aVlesotho
p99
aVsouth sudan
p100
aVmarshall islands
p101
aVfr
p102
aVsolomon islands
p103
aVfi
p104
aVfj
p105
aVfk
p106
aVfm
p107
aVdominica
p108
aVfo
p109
aVeritrea
p110
aVsy
p111
aVsr
p112
aVsv
p113
aVst
p114
aVsk
p115
aVsj
p116
aVsi
p117
aVsh
p118
aVso
p119
aVsn
p120
aVsm
p121
aVsl
p122
aVsc
p123
aVsb
p124
aVsa
p125
aVsg
p126
aVse
p127
aVsd
p128
aVazerbaijan
p129
aVnorth korea
p130
aVjapan
p131
aVlb
p132
aVlc
p133
aVla
p134
aVlithuania
p135
aVlk
p136
aVmongolia
p137
aVli
p138
aVlv
p139
aVlt
p140
aVlu
p141
aVlr
p142
aVls
p143
aVargentina
p144
aVnorway
p145
aVly
p146
aVbelarus
p147
aVye
p148
aVbahamas, the
p149
aVyt
p150
aVkorea, north
p151
aVliberia
p152
aVnetherlands
p153
aVkorea, south
p154
aVlatvia
p155
aVnamibia
p156
aVchad
p157
aVsri lanka
p158
aVangola
p159
aVeh
p160
aVee
p161
aVeg
p162
aVserbia
p163
aVec
p164
aVet
p165
aVes
p166
aVcanada
p167
aVru
p168
aVrw
p169
aVpalau
p170
aVequatorial guinea
p171
aVkuwait
p172
aVnepal
p173
aVcentral african republic
p174
aVro
p175
aVvenezuela
p176
aVkiribati
p177
aVfinland
p178
aVantigua and barbuda
p179
aVsyria
p180
aVromania
p181
aVseychelles
p182
aVzm
p183
aVcolombia
p184
aVniger
p185
aVfiji
p186
aVswaziland
p187
aVnigeria
p188
aVecuador
p189
aVsz
p190
aVmontenegro
p191
aVjordan
p192
aVsweden
p193
aVgabon
p194
aVrussia
p195
aVmacau
p196
aVsan marino
p197
aVuganda
p198
aVburundi
p199
aVbotswana
p200
aVcongo, democratic republic of the
p201
aVmalta
p202
aVcameroon
p203
aVbenin
p204
aVpalestinian territories
p205
aVsaint lucia
p206
aVgermany
p207
aVeasttimor
p208
aVtonga
p209
aVkg
p210
aVke
p211
aVki
p212
aVkh
p213
aVkn
p214
aVkm
p215
aVkr
p216
aVliechtenstein
p217
aVkp
p218
aVkw
p219
aVkz
p220
aVky
p221
aVkosovo
p222
aVsenegal
p223
aVhungary
p224
aVbahrain
p225
aVdo
p226
aVdm
p227
aVdj
p228
aVdk
p229
aVcuba
p230
aVzambia
p231
aVde
p232
aVguatemala
p233
aVdz
p234
aVhaiti
p235
aVkazakhstan
p236
aVdenmark
p237
aVqa
p238
aVcroatia
p239
aVswitzerland
p240
aVbulgaria
p241
aValbania
p242
aVser
p243
aVgreece
p244
aVbrazil
p245
aVguinea
p246
aVnauru
p247
aVwf
p248
aVunited arab emirates
p249
aVjp
p250
aVsaint kitts and nevis
p251
aVjm
p252
aVjo
p253
aVws
p254
aVno
p255
aVarmenia
p256
aVlibya
p257
aVmacedonia
p258
aVck
p259
aVpakistan
p260
aVci
p261
aVch
p262
aVco
p263
aVcn
p264
aVcm
p265
aVcl
p266
aVtunisia
p267
aVca
p268
aVcg
p269
aVcf
p270
aVcz
p271
aVcy
p272
aVcx
p273
aVcr
p274
aVcv
p275
aVcu
p276
aVturkey
p277
aVunited kingdom
p278
aVbelize
p279
aVestonia
p280
aVpt
p281
aVpy
p282
aVpa
p283
aVpf
p284
aVpg
p285
aVireland
p286
aVlaos
p287
aVpk
p288
aVph
p289
aVpn
p290
aVpl
p291
aVpm
p292
aValgeria
p293
aVtogo
p294
aVchile
p295
aVspain
p296
aVsao tome and principe
p297
aVgeorgia
p298
aVau
p299
aVva
p300
aVvc
p301
aVve
p302
aVportugal
p303
aVmexico
p304
aViq
p305
aVvi
p306
aVis
p307
aVir
p308
aVit
p309
aVvn
p310
aVil
p311
aVio
p312
aVin
p313
aVkenya
p314
aVie
p315
aVid
p316
aVitaly
p317
aVethiopia
p318
aVtimor-leste
p319
aVsingapore
p320
aVtuvalu
p321
aVcosta rica
p322
aVslovenia
p323
aVel salvador
p324
aVpoland
p325
aVindonesia
p326
aVmonaco
p327
aVdjibouti
p328
aVnf
p329
aVhong kong
p330
aVtaiwan
p331
aVbarbados
p332
aVczech republic
p333
aVbhutan
p334
aVyu
p335
aVmicronesia
p336
aVandorra
p337
aVcc
p338
aVholy see
p339
aVsierra leone
p340
aVaustralia
p341
aVzimbabwe
p342
aVbelgium
p343
aVburkina faso
p344
aVkyrgyzstan
p345
aVlebanon
p346
aVmalaysia
p347
aVmozambique
p348
aVnicaragua
p349
aVqatar
p350
aVturkmenistan
p351
aVsudan
p352
aVluxembourg
p353
aVcomoros
p354
aViceland
p355
aVbd
p356
aVbe
p357
aVbf
p358
aVbg
p359
aVba
p360
aVbb
p361
aVps
p362
aVbm
p363
aVbn
p364
aVbo
p365
aVbh
p366
aVbi
p367
aVbj
p368
aVbt
p369
aVtrinidad and tobago
p370
aVbv
p371
aVbw
p372
aVbr
p373
aVbs
p374
aVthailand
p375
aVby
p376
aVbz
p377
aVpw
p378
aVcapeverde
p379
aVom
p380
aVburma
p381
aVhonduras
p382
aVmadagascar
p383
aVbangladesh
p384
aVslovakia
p385
aVsouth korea
p386
aVbolivia
p387
aVsuriname
p388
aVhr
p389
aVpe
p390
aVht
p391
aVhu
p392
aVhk
p393
aVhn
p394
aVhm
p395
aVuy
p396
aVuz
p397
aVus
p398
aVum
p399
aVmorocco
p400
aVgambia, the
p401
aVuk
p402
aVguyana
p403
aVug
p404
aVua
p405
aVtanzania
p406
aVae
p407
aVad
p408
aVag
p409
aVaf
p410
aVai
p411
aVam
p412
aVal
p413
aVao
p414
aVan
p415
aVaq
p416
aVar
p417
aVsaint vincent and the grenadines
p418
aVat
p419
aVaw
p420
aVparaguay
p421
aVaz
p422
aVni
p423
aVnl
p424
aVsouth africa
p425
aVna
p426
aVnc
p427
aVne
p428
aVcambodia
p429
aVng
p430
aVnz
p431
aVvanuatu
p432
aVnp
p433
aVnr
p434
aVnu
p435
aVmaldives
p436
aVvietnam
p437
atRp438
.